target datalayout = "e-m:e-p270:32:32-p271:32:32-p272:64:64-i64:64-i128:128-f80:128-n8:16:32:64-S128"
target triple = "x86_64-pc-linux-gnu"

@.str.4 = private unnamed_addr constant [102 x i8] c"generated/home/dtcxzyw/WorkSpace/Projects/compilers/llvm-opt-benchmark/bench/hdf5/hdf5/src/H5FDsec2.c\00", align 1
@.str.12 = private unnamed_addr constant [37 x i8] c"%s, errno = %d, error message = '%s'\00", align 1
@H5E_VFL_g = external global i64, align 8
@__func__.H5FD__sec2_delete = private unnamed_addr constant [18 x i8] c"H5FD__sec2_delete\00", align 1
@H5E_CANTDELETEFILE_g = external global i64, align 8
@.str.30 = private unnamed_addr constant [22 x i8] c"unable to delete file\00", align 1

; Function Attrs: nounwind uwtable
define internal i32 @H5FD__sec2_delete(ptr noundef %0, i64 noundef %1) #0 {
  %3 = alloca ptr, align 8
  %4 = alloca i64, align 8
  %5 = alloca i32, align 4
  %6 = alloca i8, align 1
  %7 = alloca i32, align 4
  store ptr %0, ptr %3, align 8
  store i64 %1, ptr %4, align 8
  store i32 0, ptr %5, align 4
  store i8 0, ptr %6, align 1
  %8 = load ptr, ptr %3, align 8
  %9 = call i32 @remove(ptr noundef %8) #6
  %10 = icmp slt i32 %9, 0
  br i1 %10, label %11, label %31

11:                                               ; preds = %2
  %12 = call ptr @__errno_location() #8
  %13 = load i32, ptr %12, align 4
  store i32 %13, ptr %7, align 4
  br label %14

14:                                               ; preds = %11
  br label %15

15:                                               ; preds = %14
  br label %16

16:                                               ; preds = %15
  %17 = load i64, ptr @H5E_VFL_g, align 8
  %18 = load i64, ptr @H5E_CANTDELETEFILE_g, align 8
  %19 = load i32, ptr %7, align 4
  %20 = load i32, ptr %7, align 4
  %21 = call ptr @strerror(i32 noundef %20) #6
  %22 = call i32 (ptr, ptr, i32, i64, i64, ptr, ...) @H5E_printf_stack(ptr noundef @.str.4, ptr noundef @__func__.H5FD__sec2_delete, i32 noundef 1014, i64 noundef %17, i64 noundef %18, ptr noundef @.str.12, ptr noundef @.str.30, i32 noundef %19, ptr noundef %21)
  br label %23

23:                                               ; preds = %16
  store i8 1, ptr %6, align 1
  %24 = load i8, ptr %6, align 1
  %25 = trunc i8 %24 to i1
  %26 = zext i1 %25 to i8
  store i8 %26, ptr %6, align 1
  br label %27

27:                                               ; preds = %23
  br label %28

28:                                               ; preds = %27
  store i32 -1, ptr %5, align 4
  br label %32

29:                                               ; No predecessors!
  br label %30

30:                                               ; preds = %29
  br label %31

31:                                               ; preds = %30, %2
  br label %32

32:                                               ; preds = %31, %28
  %33 = load i32, ptr %5, align 4
  ret i32 %33
}