; Function Attrs: nounwind uwtable
define internal range(i32 -1, 1) i32 @H5FD__sec2_delete(ptr nocapture noundef readonly %0, i64 %1) #0 {
  %3 = tail call i32 @remove(ptr noundef %0) #15
  %4 = icmp slt i32 %3, 0
  br i1 %4, label %5, label %12

5:                                                ; preds = %2
  %6 = tail call ptr @__errno_location() #17
  %7 = load i32, ptr %6, align 4
  %8 = load i64, ptr @H5E_VFL_g, align 8
  %9 = load i64, ptr @H5E_CANTDELETEFILE_g, align 8
  %10 = tail call ptr @strerror(i32 noundef %7) #15
  %11 = tail call i32 (ptr, ptr, i32, i64, i64, ptr, ...) @H5E_printf_stack(ptr noundef nonnull @.str.4, ptr noundef nonnull @__func__.H5FD__sec2_delete, i32 noundef 1014, i64 noundef %8, i64 noundef %9, ptr noundef nonnull @.str.12, ptr noundef nonnull @.str.30, i32 noundef %7, ptr noundef %10) #15
  br label %12

12:                                               ; preds = %2, %5
  %.0 = phi i32 [ -1, %5 ], [ 0, %2 ]
  ret i32 %.0
}